; Function Attrs: nofree nounwind memory(read, inaccessiblemem: none) uwtable
define hidden noundef ptr @mbedtls_md_info_from_string(ptr noundef readonly %0) local_unnamed_addr #8 {
  %2 = icmp eq ptr %0, null
  br i1 %2, label %mbedtls_md_info_from_type.exit, label %.preheader

.preheader:                                       ; preds = %1, %5
  %3 = phi ptr [ %7, %5 ], [ @.str.12, %1 ]
  %.011 = phi ptr [ %6, %5 ], [ @md_names, %1 ]
  %4 = tail call i32 @strcmp(ptr noundef nonnull dereferenceable(1) %3, ptr noundef nonnull dereferenceable(1) %0) #16
  %.not10 = icmp eq i32 %4, 0
  br i1 %.not10, label %.critedge, label %5

5:                                                ; preds = %.preheader
  %6 = getelementptr inbounds nuw i8, ptr %.011, i64 16
  %7 = load ptr, ptr %6, align 8, !tbaa !16
  %.not = icmp eq ptr %7, null
  br i1 %.not, label %.critedge, label %.preheader, !llvm.loop !19

.critedge:                                        ; preds = %5, %.preheader
  %.0.lcssa = phi ptr [ getelementptr inbounds nuw (i8, ptr @md_names, i64 192), %5 ], [ %.011, %.preheader ]
  %8 = getelementptr inbounds nuw i8, ptr %.0.lcssa, i64 8
  %9 = load i32, ptr %8, align 8, !tbaa !21
  %switch.tableidx = add i32 %9, -3
  %10 = icmp ult i32 %switch.tableidx, 17
  br i1 %10, label %switch.lookup, label %mbedtls_md_info_from_type.exit

switch.lookup:                                    ; preds = %.critedge
  %11 = zext nneg i32 %switch.tableidx to i64
  %switch.gep = getelementptr inbounds nuw [17 x ptr], ptr @switch.table.mbedtls_md_info_from_string, i64 0, i64 %11
  %switch.load = load ptr, ptr %switch.gep, align 8
  br label %mbedtls_md_info_from_type.exit

mbedtls_md_info_from_type.exit:                   ; preds = %.critedge, %switch.lookup, %1
  %.07 = phi ptr [ null, %1 ], [ %switch.load, %switch.lookup ], [ null, %.critedge ]
  ret ptr %.07
}